target datalayout = "e-m:e-p270:32:32-p271:32:32-p272:64:64-i64:64-i128:128-f80:128-n8:16:32:64-S128"
target triple = "x86_64-pc-linux-gnu"

%"class.cv::Size_" = type { i32, i32 }
%"class.cv::Matx" = type { [16 x float] }
%"class.cv::Mat" = type { i32, i32, i32, i32, ptr, ptr, ptr, ptr, ptr, ptr, %"struct.cv::MatSize", %"struct.cv::MatStep" }
%"struct.cv::MatSize" = type { ptr }
%"struct.cv::MatStep" = type { ptr, [2 x i64] }
%"class.cv::Mat_" = type { %"class.cv::Mat" }
%"class.cv::Affine3" = type { %"class.cv::Matx" }
%"class.cv::Matx.21" = type { [9 x float] }
%"struct.opencv_test::(anonymous namespace)::SemisphereScene" = type <{ %"struct.opencv_test::(anonymous namespace)::Scene", i32, float, %"class.cv::Affine3", %"class.cv::Size_", %"class.cv::Matx.21", float, i8, [7 x i8] }>
%"struct.opencv_test::(anonymous namespace)::Scene" = type { ptr }
%"struct.opencv_test::(anonymous namespace)::Reprojector" = type { float, float, float, float }
%"class.cv::Range" = type { i32, i32 }
%"struct.opencv_test::(anonymous namespace)::RenderInvoker" = type <{ %"class.cv::ParallelLoopBody", ptr, %"class.cv::Affine3", %"struct.opencv_test::(anonymous namespace)::Reprojector", float, i8, [3 x i8] }>
%"class.cv::ParallelLoopBody" = type { ptr }

@_ZTVN2cv16ParallelLoopBodyE = external unnamed_addr constant { [5 x ptr] }, align 8

; Function Attrs: mustprogress nounwind uwtable
define linkonce_odr hidden void @_ZN2cv16ParallelLoopBodyC2Ev(ptr noundef nonnull align 8 dereferenceable(8) %0) unnamed_addr #4 comdat align 2 {
  %2 = alloca ptr, align 8
  store ptr %0, ptr %2, align 8
  %3 = load ptr, ptr %2, align 8
  store ptr getelementptr inbounds inrange(-16, 24) ({ [5 x ptr] }, ptr @_ZTVN2cv16ParallelLoopBodyE, i32 0, i32 0, i32 2), ptr %3, align 8
  ret void
}

; Function Attrs: mustprogress nounwind uwtable
define linkonce_odr hidden noundef nonnull align 4 dereferenceable(4) ptr @_ZN2cv4MatxIfLi3ELi3EEclEii(ptr noundef nonnull align 4 dereferenceable(36) %0, i32 noundef %1, i32 noundef %2) #4 comdat align 2 {
  %4 = alloca ptr, align 8
  %5 = alloca i32, align 4
  %6 = alloca i32, align 4
  store ptr %0, ptr %4, align 8
  store i32 %1, ptr %5, align 4
  store i32 %2, ptr %6, align 4
  %7 = load ptr, ptr %4, align 8
  %8 = getelementptr inbounds %"class.cv::Matx.21", ptr %7, i32 0, i32 0
  %9 = load i32, ptr %5, align 4
  %10 = mul nsw i32 %9, 3
  %11 = load i32, ptr %6, align 4
  %12 = add nsw i32 %10, %11
  %13 = sext i32 %12 to i64
  %14 = getelementptr inbounds [9 x float], ptr %8, i64 0, i64 %13
  ret ptr %14
}

; Function Attrs: mustprogress nounwind uwtable
define linkonce_odr hidden void @_ZN2cv4Mat_IfED2Ev(ptr noundef nonnull align 8 dereferenceable(96) %0) unnamed_addr #4 comdat align 2 {
  %2 = alloca ptr, align 8
  store ptr %0, ptr %2, align 8
  %3 = load ptr, ptr %2, align 8
  call void @_ZN2cv3MatD2Ev(ptr noundef nonnull align 8 dereferenceable(96) %3) #3
  ret void
}

; Function Attrs: mustprogress nounwind uwtable
define internal void @_ZN11opencv_test12_GLOBAL__N_113RenderInvokerINS0_15SemisphereSceneEED2Ev(ptr noundef nonnull align 8 dereferenceable(101) %0) unnamed_addr #4 align 2 {
  %2 = alloca ptr, align 8
  store ptr %0, ptr %2, align 8
  %3 = load ptr, ptr %2, align 8
  call void @_ZN2cv16ParallelLoopBodyD2Ev(ptr noundef nonnull align 8 dereferenceable(8) %3) #3
  ret void
}

; Function Attrs: mustprogress nounwind uwtable
define internal void @_ZN11opencv_test12_GLOBAL__N_113RenderInvokerINS0_15SemisphereSceneEEC2ERN2cv4Mat_IfEENS4_7Affine3IfEENS0_11ReprojectorEfb(ptr noundef nonnull align 8 dereferenceable(101) %0, ptr noundef nonnull align 8 dereferenceable(96) %1, ptr noundef byval(%"class.cv::Affine3") align 8 %2, <2 x float> %3, <2 x float> %4, float noundef %5, i1 noundef zeroext %6) unnamed_addr #15 align 2 {
  %8 = alloca %"struct.opencv_test::(anonymous namespace)::Reprojector", align 4
  %9 = alloca ptr, align 8
  %10 = alloca ptr, align 8
  %11 = alloca float, align 4
  %12 = alloca i8, align 1
  %13 = getelementptr inbounds { <2 x float>, <2 x float> }, ptr %8, i32 0, i32 0
  store <2 x float> %3, ptr %13, align 4
  %14 = getelementptr inbounds { <2 x float>, <2 x float> }, ptr %8, i32 0, i32 1
  store <2 x float> %4, ptr %14, align 4
  store ptr %0, ptr %9, align 8
  store ptr %1, ptr %10, align 8
  store float %5, ptr %11, align 4
  %15 = zext i1 %6 to i8
  store i8 %15, ptr %12, align 1
  %16 = load ptr, ptr %9, align 8
  %17 = getelementptr inbounds i8, ptr %16, i64 0
  call void @llvm.memset.p0.i64(ptr align 8 %17, i8 0, i64 8, i1 false)
  call void @_ZN2cv16ParallelLoopBodyC2Ev(ptr noundef nonnull align 8 dereferenceable(8) %16) #3
  store ptr getelementptr inbounds inrange(-16, 24) ({ [5 x ptr] }, ptr @_ZTVN11opencv_test12_GLOBAL__N_113RenderInvokerINS0_15SemisphereSceneEEE, i32 0, i32 0, i32 2), ptr %16, align 8
  %18 = getelementptr inbounds %"struct.opencv_test::(anonymous namespace)::RenderInvoker", ptr %16, i32 0, i32 1
  %19 = load ptr, ptr %10, align 8
  store ptr %19, ptr %18, align 8
  %20 = getelementptr inbounds %"struct.opencv_test::(anonymous namespace)::RenderInvoker", ptr %16, i32 0, i32 2
  call void @llvm.memcpy.p0.p0.i64(ptr align 8 %20, ptr align 8 %2, i64 64, i1 false)
  %21 = getelementptr inbounds %"struct.opencv_test::(anonymous namespace)::RenderInvoker", ptr %16, i32 0, i32 3
  call void @llvm.memcpy.p0.p0.i64(ptr align 8 %21, ptr align 4 %8, i64 16, i1 false)
  %22 = getelementptr inbounds %"struct.opencv_test::(anonymous namespace)::RenderInvoker", ptr %16, i32 0, i32 4
  %23 = load float, ptr %11, align 4
  store float %23, ptr %22, align 8
  %24 = getelementptr inbounds %"struct.opencv_test::(anonymous namespace)::RenderInvoker", ptr %16, i32 0, i32 5
  %25 = load i8, ptr %12, align 1
  %26 = trunc i8 %25 to i1
  %27 = zext i1 %26 to i8
  store i8 %27, ptr %24, align 4
  ret void
}

; Function Attrs: mustprogress nounwind uwtable
define linkonce_odr hidden void @_ZN2cv5RangeC2Eii(ptr noundef nonnull align 4 dereferenceable(8) %0, i32 noundef %1, i32 noundef %2) unnamed_addr #4 comdat align 2 {
  %4 = alloca ptr, align 8
  %5 = alloca i32, align 4
  %6 = alloca i32, align 4
  store ptr %0, ptr %4, align 8
  store i32 %1, ptr %5, align 4
  store i32 %2, ptr %6, align 4
  %7 = load ptr, ptr %4, align 8
  %8 = getelementptr inbounds %"class.cv::Range", ptr %7, i32 0, i32 0
  %9 = load i32, ptr %5, align 4
  store i32 %9, ptr %8, align 4
  %10 = getelementptr inbounds %"class.cv::Range", ptr %7, i32 0, i32 1
  %11 = load i32, ptr %6, align 4
  store i32 %11, ptr %10, align 4
  ret void
}

; Function Attrs: mustprogress nounwind uwtable
define internal void @_ZN11opencv_test12_GLOBAL__N_111ReprojectorC2EN2cv4MatxIfLi3ELi3EEE(ptr noundef nonnull align 4 dereferenceable(16) %0, ptr noundef byval(%"class.cv::Matx.21") align 8 %1) unnamed_addr #4 align 2 {
  %3 = alloca ptr, align 8
  store ptr %0, ptr %3, align 8
  %4 = load ptr, ptr %3, align 8
  %5 = call noundef nonnull align 4 dereferenceable(4) ptr @_ZN2cv4MatxIfLi3ELi3EEclEii(ptr noundef nonnull align 4 dereferenceable(36) %1, i32 noundef 0, i32 noundef 0)
  %6 = load float, ptr %5, align 4
  %7 = fdiv float 1.000000e+00, %6
  %8 = getelementptr inbounds %"struct.opencv_test::(anonymous namespace)::Reprojector", ptr %4, i32 0, i32 0
  store float %7, ptr %8, align 4
  %9 = call noundef nonnull align 4 dereferenceable(4) ptr @_ZN2cv4MatxIfLi3ELi3EEclEii(ptr noundef nonnull align 4 dereferenceable(36) %1, i32 noundef 1, i32 noundef 1)
  %10 = load float, ptr %9, align 4
  %11 = fdiv float 1.000000e+00, %10
  %12 = getelementptr inbounds %"struct.opencv_test::(anonymous namespace)::Reprojector", ptr %4, i32 0, i32 1
  store float %11, ptr %12, align 4
  %13 = call noundef nonnull align 4 dereferenceable(4) ptr @_ZN2cv4MatxIfLi3ELi3EEclEii(ptr noundef nonnull align 4 dereferenceable(36) %1, i32 noundef 0, i32 noundef 2)
  %14 = load float, ptr %13, align 4
  %15 = getelementptr inbounds %"struct.opencv_test::(anonymous namespace)::Reprojector", ptr %4, i32 0, i32 2
  store float %14, ptr %15, align 4
  %16 = call noundef nonnull align 4 dereferenceable(4) ptr @_ZN2cv4MatxIfLi3ELi3EEclEii(ptr noundef nonnull align 4 dereferenceable(36) %1, i32 noundef 1, i32 noundef 2)
  %17 = load float, ptr %16, align 4
  %18 = getelementptr inbounds %"struct.opencv_test::(anonymous namespace)::Reprojector", ptr %4, i32 0, i32 3
  store float %17, ptr %18, align 4
  ret void
}

; Function Attrs: mustprogress uwtable
define linkonce_odr hidden void @_ZN2cv4Mat_IfEC2ENS_5Size_IiEE(ptr noundef nonnull align 8 dereferenceable(96) %0, i64 %1) unnamed_addr #5 comdat align 2 {
  %3 = alloca %"class.cv::Size_", align 4
  %4 = alloca ptr, align 8
  store i64 %1, ptr %3, align 4
  store ptr %0, ptr %4, align 8
  %5 = load ptr, ptr %4, align 8
  %6 = getelementptr inbounds %"class.cv::Size_", ptr %3, i32 0, i32 1
  %7 = load i32, ptr %6, align 4
  %8 = getelementptr inbounds %"class.cv::Size_", ptr %3, i32 0, i32 0
  %9 = load i32, ptr %8, align 4
  call void @_ZN2cv3MatC2Eiii(ptr noundef nonnull align 8 dereferenceable(96) %5, i32 noundef %7, i32 noundef %9, i32 noundef 5)
  ret void
}

; Function Attrs: mustprogress uwtable
define internal void @_ZN11opencv_test12_GLOBAL__N_115SemisphereScene5depthERKN2cv7Affine3IfEE(ptr dead_on_unwind noalias writable sret(%"class.cv::Mat_") align 8 %0, ptr noundef nonnull align 8 dereferenceable(129) %1, ptr noundef nonnull align 4 dereferenceable(64) %2) unnamed_addr #13 align 2 personality ptr @__gxx_personality_v0 {
  %4 = alloca ptr, align 8
  %5 = alloca ptr, align 8
  %6 = alloca ptr, align 8
  %7 = alloca i1, align 1
  %8 = alloca %"class.cv::Size_", align 4
  %9 = alloca %"struct.opencv_test::(anonymous namespace)::Reprojector", align 4
  %10 = alloca %"class.cv::Matx.21", align 8
  %11 = alloca ptr, align 8
  %12 = alloca i32, align 4
  %13 = alloca %"class.cv::Range", align 4
  %14 = alloca %"struct.opencv_test::(anonymous namespace)::RenderInvoker", align 8
  %15 = alloca %"class.cv::Affine3", align 8
  %16 = alloca %"struct.opencv_test::(anonymous namespace)::Reprojector", align 4
  store ptr %0, ptr %4, align 8
  store ptr %1, ptr %5, align 8
  store ptr %2, ptr %6, align 8
  %17 = load ptr, ptr %5, align 8
  store i1 false, ptr %7, align 1
  %18 = getelementptr inbounds %"struct.opencv_test::(anonymous namespace)::SemisphereScene", ptr %17, i32 0, i32 4
  call void @llvm.memcpy.p0.p0.i64(ptr align 4 %8, ptr align 8 %18, i64 8, i1 false)
  %19 = load i64, ptr %8, align 4
  call void @_ZN2cv4Mat_IfEC2ENS_5Size_IiEE(ptr noundef nonnull align 8 dereferenceable(96) %0, i64 %19)
  %20 = getelementptr inbounds %"struct.opencv_test::(anonymous namespace)::SemisphereScene", ptr %17, i32 0, i32 5
  call void @llvm.memcpy.p0.p0.i64(ptr align 4 %10, ptr align 8 %20, i64 36, i1 false)
  invoke void @_ZN11opencv_test12_GLOBAL__N_111ReprojectorC2EN2cv4MatxIfLi3ELi3EEE(ptr noundef nonnull align 4 dereferenceable(16) %9, ptr noundef byval(%"class.cv::Matx.21") align 8 %10)
          to label %21 unwind label %38

21:                                               ; preds = %3
  %22 = getelementptr inbounds %"class.cv::Mat", ptr %0, i32 0, i32 2
  %23 = load i32, ptr %22, align 8
  invoke void @_ZN2cv5RangeC2Eii(ptr noundef nonnull align 4 dereferenceable(8) %13, i32 noundef 0, i32 noundef %23)
          to label %24 unwind label %38

24:                                               ; preds = %21
  %25 = load ptr, ptr %6, align 8
  call void @llvm.memcpy.p0.p0.i64(ptr align 4 %15, ptr align 4 %25, i64 64, i1 false)
  call void @llvm.memcpy.p0.p0.i64(ptr align 4 %16, ptr align 4 %9, i64 16, i1 false)
  %26 = getelementptr inbounds %"struct.opencv_test::(anonymous namespace)::SemisphereScene", ptr %17, i32 0, i32 6
  %27 = load float, ptr %26, align 4
  %28 = getelementptr inbounds %"struct.opencv_test::(anonymous namespace)::SemisphereScene", ptr %17, i32 0, i32 7
  %29 = load i8, ptr %28, align 8
  %30 = trunc i8 %29 to i1
  %31 = getelementptr inbounds { <2 x float>, <2 x float> }, ptr %16, i32 0, i32 0
  %32 = load <2 x float>, ptr %31, align 4
  %33 = getelementptr inbounds { <2 x float>, <2 x float> }, ptr %16, i32 0, i32 1
  %34 = load <2 x float>, ptr %33, align 4
  invoke void @_ZN11opencv_test12_GLOBAL__N_113RenderInvokerINS0_15SemisphereSceneEEC2ERN2cv4Mat_IfEENS4_7Affine3IfEENS0_11ReprojectorEfb(ptr noundef nonnull align 8 dereferenceable(101) %14, ptr noundef nonnull align 8 dereferenceable(96) %0, ptr noundef byval(%"class.cv::Affine3") align 8 %15, <2 x float> %32, <2 x float> %34, float noundef %27, i1 noundef zeroext %30)
          to label %35 unwind label %38

35:                                               ; preds = %24
  invoke void @_ZN2cv13parallel_for_ERKNS_5RangeERKNS_16ParallelLoopBodyEd(ptr noundef nonnull align 4 dereferenceable(8) %13, ptr noundef nonnull align 8 dereferenceable(8) %14, double noundef -1.000000e+00)
          to label %36 unwind label %42

36:                                               ; preds = %35
  call void @_ZN11opencv_test12_GLOBAL__N_113RenderInvokerINS0_15SemisphereSceneEED2Ev(ptr noundef nonnull align 8 dereferenceable(101) %14) #3
  store i1 true, ptr %7, align 1
  %37 = load i1, ptr %7, align 1
  br i1 %37, label %47, label %46

38:                                               ; preds = %24, %21, %3
  %39 = landingpad { ptr, i32 }
          cleanup
  %40 = extractvalue { ptr, i32 } %39, 0
  store ptr %40, ptr %11, align 8
  %41 = extractvalue { ptr, i32 } %39, 1
  store i32 %41, ptr %12, align 4
  br label %48

42:                                               ; preds = %35
  %43 = landingpad { ptr, i32 }
          cleanup
  %44 = extractvalue { ptr, i32 } %43, 0
  store ptr %44, ptr %11, align 8
  %45 = extractvalue { ptr, i32 } %43, 1
  store i32 %45, ptr %12, align 4
  call void @_ZN11opencv_test12_GLOBAL__N_113RenderInvokerINS0_15SemisphereSceneEED2Ev(ptr noundef nonnull align 8 dereferenceable(101) %14) #3
  br label %48

46:                                               ; preds = %36
  call void @_ZN2cv4Mat_IfED2Ev(ptr noundef nonnull align 8 dereferenceable(96) %0) #3
  br label %47

47:                                               ; preds = %46, %36
  ret void

48:                                               ; preds = %42, %38
  call void @_ZN2cv4Mat_IfED2Ev(ptr noundef nonnull align 8 dereferenceable(96) %0) #3
  br label %49

49:                                               ; preds = %48
  %50 = load ptr, ptr %11, align 8
  %51 = load i32, ptr %12, align 4
  %52 = insertvalue { ptr, i32 } poison, ptr %50, 0
  %53 = insertvalue { ptr, i32 } %52, i32 %51, 1
  resume { ptr, i32 } %53
}