; Function Attrs: mustprogress uwtable
define internal void @_ZN11opencv_test12_GLOBAL__N_115SemisphereScene5depthERKN2cv7Affine3IfEE(ptr dead_on_unwind noalias nonnull writable sret(%"class.cv::Mat_") align 8 %0, ptr nocapture noundef nonnull readonly align 8 dereferenceable(129) %1, ptr nocapture noundef nonnull readonly align 4 dereferenceable(64) %2) unnamed_addr #13 align 2 personality ptr @__gxx_personality_v0 {
  %4 = alloca %"class.cv::Range", align 4
  %5 = alloca %"struct.opencv_test::(anonymous namespace)::RenderInvoker", align 8
  %6 = getelementptr inbounds i8, ptr %1, i64 80
  %.sroa.01.0.copyload = load i64, ptr %6, align 8
  %.sroa.0.0.extract.trunc.i = trunc i64 %.sroa.01.0.copyload to i32
  %.sroa.2.0.extract.shift.i = lshr i64 %.sroa.01.0.copyload, 32
  %.sroa.2.0.extract.trunc.i = trunc nuw i64 %.sroa.2.0.extract.shift.i to i32
  tail call void @_ZN2cv3MatC2Eiii(ptr noundef nonnull align 8 dereferenceable(96) %0, i32 noundef %.sroa.2.0.extract.trunc.i, i32 noundef %.sroa.0.0.extract.trunc.i, i32 noundef 5)
  %7 = getelementptr inbounds i8, ptr %1, i64 88
  %.sroa.05.sroa.0.0.copyload = load float, ptr %7, align 8
  %.sroa.05.sroa.3.0..sroa_idx = getelementptr inbounds i8, ptr %1, i64 96
  %8 = load <4 x float>, ptr %.sroa.05.sroa.3.0..sroa_idx, align 8
  %.sroa.3.8.vec.insert = shufflevector <4 x float> %8, <4 x float> poison, <2 x i32> <i32 0, i32 2>
  %9 = extractelement <4 x float> %8, i64 3
  %10 = insertelement <2 x float> %.sroa.3.8.vec.insert, float %.sroa.05.sroa.0.0.copyload, i64 0
  %11 = fdiv <2 x float> <float 1.000000e+00, float 1.000000e+00>, %10
  %.sroa.3.12.vec.insert = insertelement <2 x float> %.sroa.3.8.vec.insert, float %9, i64 1
  %12 = getelementptr inbounds i8, ptr %0, i64 8
  %13 = load i32, ptr %12, align 8
  store i32 0, ptr %4, align 4
  %14 = getelementptr inbounds i8, ptr %4, i64 4
  store i32 %13, ptr %14, align 4
  %15 = getelementptr inbounds i8, ptr %5, i64 16
  call void @llvm.memcpy.p0.p0.i64(ptr noundef nonnull align 8 dereferenceable(64) %15, ptr noundef nonnull align 4 dereferenceable(64) %2, i64 64, i1 false)
  %16 = getelementptr inbounds i8, ptr %1, i64 124
  %17 = load float, ptr %16, align 4
  %18 = getelementptr inbounds i8, ptr %1, i64 128
  %19 = load i8, ptr %18, align 8
  %20 = and i8 %19, 1
  store ptr getelementptr inbounds inrange(-16, 24) (i8, ptr @_ZTVN11opencv_test12_GLOBAL__N_113RenderInvokerINS0_15SemisphereSceneEEE, i64 16), ptr %5, align 8
  %21 = getelementptr inbounds i8, ptr %5, i64 8
  store ptr %0, ptr %21, align 8
  %22 = getelementptr inbounds i8, ptr %5, i64 80
  store <2 x float> %11, ptr %22, align 8
  %.sroa.2.0..sroa_idx.i = getelementptr inbounds i8, ptr %5, i64 88
  store <2 x float> %.sroa.3.12.vec.insert, ptr %.sroa.2.0..sroa_idx.i, align 8
  %23 = getelementptr inbounds i8, ptr %5, i64 96
  store float %17, ptr %23, align 8
  %24 = getelementptr inbounds i8, ptr %5, i64 100
  store i8 %20, ptr %24, align 4
  invoke void @_ZN2cv13parallel_for_ERKNS_5RangeERKNS_16ParallelLoopBodyEd(ptr noundef nonnull align 4 dereferenceable(8) %4, ptr noundef nonnull align 8 dereferenceable(8) %5, double noundef -1.000000e+00)
          to label %25 unwind label %26

25:                                               ; preds = %3
  call void @_ZN2cv16ParallelLoopBodyD2Ev(ptr noundef nonnull align 8 dereferenceable(8) %5) #27
  ret void

26:                                               ; preds = %3
  %27 = landingpad { ptr, i32 }
          cleanup
  call void @_ZN2cv16ParallelLoopBodyD2Ev(ptr noundef nonnull align 8 dereferenceable(8) %5) #27
  call void @_ZN2cv3MatD2Ev(ptr noundef nonnull align 8 dereferenceable(96) %0) #27
  resume { ptr, i32 } %27
}